target datalayout = "e-m:e-p270:32:32-p271:32:32-p272:64:64-i64:64-i128:128-f80:128-n8:16:32:64-S128"
target triple = "x86_64-pc-linux-gnu"

@.str = private unnamed_addr constant [48 x i8] c"Could not allocate space to read DB into memory\00", align 1
@.str.1 = private unnamed_addr constant [10 x i8] c"platform:\00", align 1

; Function Attrs: nounwind uwtable
define hidden i32 @SDL_AddGamepadMapping_REAL(ptr noundef %0) #0 {
  %2 = alloca ptr, align 8
  %3 = alloca i32, align 4
  store ptr %0, ptr %2, align 8
  call void @llvm.lifetime.start.p0(i64 4, ptr %3) #8
  call void @SDL_LockJoysticks_REAL()
  %4 = load ptr, ptr %2, align 8
  %5 = call i32 @SDL_PrivateAddGamepadMapping(ptr noundef %4, i32 noundef 1)
  store i32 %5, ptr %3, align 4
  call void @SDL_UnlockJoysticks_REAL()
  %6 = load i32, ptr %3, align 4
  call void @llvm.lifetime.end.p0(i64 4, ptr %3) #8
  ret i32 %6
}

; Function Attrs: nounwind uwtable
define hidden i32 @SDL_AddGamepadMappingsFromIO_REAL(ptr noundef %0, i1 noundef zeroext %1) #0 {
  %3 = alloca i32, align 4
  %4 = alloca ptr, align 8
  %5 = alloca i8, align 1
  %6 = alloca ptr, align 8
  %7 = alloca i32, align 4
  %8 = alloca ptr, align 8
  %9 = alloca ptr, align 8
  %10 = alloca ptr, align 8
  %11 = alloca ptr, align 8
  %12 = alloca ptr, align 8
  %13 = alloca [64 x i8], align 16
  %14 = alloca i64, align 8
  %15 = alloca i64, align 8
  %16 = alloca i32, align 4
  store ptr %0, ptr %4, align 8
  %17 = zext i1 %1 to i8
  store i8 %17, ptr %5, align 1
  call void @llvm.lifetime.start.p0(i64 8, ptr %6) #8
  %18 = call ptr @SDL_GetPlatform_REAL()
  store ptr %18, ptr %6, align 8
  call void @llvm.lifetime.start.p0(i64 4, ptr %7) #8
  store i32 0, ptr %7, align 4
  call void @llvm.lifetime.start.p0(i64 8, ptr %8) #8
  call void @llvm.lifetime.start.p0(i64 8, ptr %9) #8
  call void @llvm.lifetime.start.p0(i64 8, ptr %10) #8
  call void @llvm.lifetime.start.p0(i64 8, ptr %11) #8
  call void @llvm.lifetime.start.p0(i64 8, ptr %12) #8
  call void @llvm.lifetime.start.p0(i64 64, ptr %13) #8
  call void @llvm.lifetime.start.p0(i64 8, ptr %14) #8
  call void @llvm.lifetime.start.p0(i64 8, ptr %15) #8
  %19 = load ptr, ptr %4, align 8
  %20 = load i8, ptr %5, align 1, !range !3, !noundef !4
  %21 = trunc i8 %20 to i1
  %22 = call ptr @SDL_LoadFile_IO_REAL(ptr noundef %19, ptr noundef %14, i1 noundef zeroext %21)
  store ptr %22, ptr %8, align 8
  %23 = load ptr, ptr %8, align 8
  %24 = icmp ne ptr %23, null
  br i1 %24, label %27, label %25

25:                                               ; preds = %2
  %26 = call zeroext i1 (ptr, ...) @SDL_SetError_REAL(ptr noundef @.str)
  store i32 -1, ptr %3, align 4
  store i32 1, ptr %16, align 4
  br label %95

27:                                               ; preds = %2
  %28 = load ptr, ptr %8, align 8
  store ptr %28, ptr %9, align 8
  call void @SDL_LockJoysticks_REAL()
  call void @PushMappingChangeTracking()
  br label %29

29:                                               ; preds = %89, %27
  %30 = load ptr, ptr %9, align 8
  %31 = load ptr, ptr %8, align 8
  %32 = load i64, ptr %14, align 8
  %33 = getelementptr inbounds nuw i8, ptr %31, i64 %32
  %34 = icmp ult ptr %30, %33
  br i1 %34, label %35, label %92

35:                                               ; preds = %29
  %36 = load ptr, ptr %9, align 8
  %37 = call ptr @SDL_strchr_REAL(ptr noundef %36, i32 noundef 10)
  store ptr %37, ptr %10, align 8
  %38 = load ptr, ptr %10, align 8
  %39 = icmp ne ptr %38, null
  br i1 %39, label %40, label %42

40:                                               ; preds = %35
  %41 = load ptr, ptr %10, align 8
  store i8 0, ptr %41, align 1
  br label %46

42:                                               ; preds = %35
  %43 = load ptr, ptr %8, align 8
  %44 = load i64, ptr %14, align 8
  %45 = getelementptr inbounds nuw i8, ptr %43, i64 %44
  store ptr %45, ptr %10, align 8
  br label %46

46:                                               ; preds = %42, %40
  %47 = load ptr, ptr %9, align 8
  %48 = call ptr @SDL_strstr_REAL(ptr noundef %47, ptr noundef @.str.1)
  store ptr %48, ptr %11, align 8
  %49 = load ptr, ptr %11, align 8
  %50 = icmp ne ptr %49, null
  br i1 %50, label %51, label %89

51:                                               ; preds = %46
  %52 = call i64 @SDL_strlen_REAL(ptr noundef @.str.1)
  %53 = load ptr, ptr %11, align 8
  %54 = getelementptr inbounds nuw i8, ptr %53, i64 %52
  store ptr %54, ptr %11, align 8
  %55 = load ptr, ptr %11, align 8
  %56 = call ptr @SDL_strchr_REAL(ptr noundef %55, i32 noundef 44)
  store ptr %56, ptr %12, align 8
  %57 = load ptr, ptr %12, align 8
  %58 = icmp ne ptr %57, null
  br i1 %58, label %59, label %88

59:                                               ; preds = %51
  %60 = load ptr, ptr %12, align 8
  %61 = load ptr, ptr %11, align 8
  %62 = ptrtoint ptr %60 to i64
  %63 = ptrtoint ptr %61 to i64
  %64 = sub i64 %62, %63
  %65 = add nsw i64 %64, 1
  store i64 %65, ptr %15, align 8
  %66 = load i64, ptr %15, align 8
  %67 = add i64 %66, 1
  %68 = icmp ult i64 %67, 64
  br i1 %68, label %69, label %87

69:                                               ; preds = %59
  %70 = getelementptr inbounds [64 x i8], ptr %13, i64 0, i64 0
  %71 = load ptr, ptr %11, align 8
  %72 = load i64, ptr %15, align 8
  %73 = call i64 @SDL_strlcpy_REAL(ptr noundef %70, ptr noundef %71, i64 noundef %72)
  %74 = getelementptr inbounds [64 x i8], ptr %13, i64 0, i64 0
  %75 = load ptr, ptr %6, align 8
  %76 = load i64, ptr %15, align 8
  %77 = call i32 @SDL_strncasecmp_REAL(ptr noundef %74, ptr noundef %75, i64 noundef %76)
  %78 = icmp eq i32 %77, 0
  br i1 %78, label %79, label %86

79:                                               ; preds = %69
  %80 = load ptr, ptr %9, align 8
  %81 = call i32 @SDL_AddGamepadMapping_REAL(ptr noundef %80)
  %82 = icmp sgt i32 %81, 0
  br i1 %82, label %83, label %86

83:                                               ; preds = %79
  %84 = load i32, ptr %7, align 4
  %85 = add nsw i32 %84, 1
  store i32 %85, ptr %7, align 4
  br label %86

86:                                               ; preds = %83, %79, %69
  br label %87

87:                                               ; preds = %86, %59
  br label %88

88:                                               ; preds = %87, %51
  br label %89

89:                                               ; preds = %88, %46
  %90 = load ptr, ptr %10, align 8
  %91 = getelementptr inbounds i8, ptr %90, i64 1
  store ptr %91, ptr %9, align 8
  br label %29, !llvm.loop !15

92:                                               ; preds = %29
  call void @PopMappingChangeTracking()
  call void @SDL_UnlockJoysticks_REAL()
  %93 = load ptr, ptr %8, align 8
  call void @SDL_free_REAL(ptr noundef %93)
  %94 = load i32, ptr %7, align 4
  store i32 %94, ptr %3, align 4
  store i32 1, ptr %16, align 4
  br label %95

95:                                               ; preds = %92, %25
  call void @llvm.lifetime.end.p0(i64 8, ptr %15) #8
  call void @llvm.lifetime.end.p0(i64 8, ptr %14) #8
  call void @llvm.lifetime.end.p0(i64 64, ptr %13) #8
  call void @llvm.lifetime.end.p0(i64 8, ptr %12) #8
  call void @llvm.lifetime.end.p0(i64 8, ptr %11) #8
  call void @llvm.lifetime.end.p0(i64 8, ptr %10) #8
  call void @llvm.lifetime.end.p0(i64 8, ptr %9) #8
  call void @llvm.lifetime.end.p0(i64 8, ptr %8) #8
  call void @llvm.lifetime.end.p0(i64 4, ptr %7) #8
  call void @llvm.lifetime.end.p0(i64 8, ptr %6) #8
  %96 = load i32, ptr %3, align 4
  ret i32 %96
}