; Function Attrs: nounwind uwtable
define hidden i32 @SDL_AddGamepadMappingsFromIO_REAL(ptr noundef %0, i1 noundef zeroext %1) local_unnamed_addr #0 {
  %3 = alloca [64 x i8], align 16
  %4 = alloca i64, align 8
  %5 = tail call ptr @SDL_GetPlatform_REAL() #10
  call void @llvm.lifetime.start.p0(i64 64, ptr nonnull %3) #10
  call void @llvm.lifetime.start.p0(i64 8, ptr nonnull %4) #10
  %6 = call ptr @SDL_LoadFile_IO_REAL(ptr noundef %0, ptr noundef nonnull %4, i1 noundef zeroext %1) #10
  %.not = icmp eq ptr %6, null
  br i1 %.not, label %7, label %9

7:                                                ; preds = %2
  %8 = call zeroext i1 (ptr, ...) @SDL_SetError_REAL(ptr noundef nonnull @.str) #10
  br label %42

9:                                                ; preds = %2
  call void @SDL_LockJoysticks_REAL() #10
  call fastcc void @PushMappingChangeTracking()
  %10 = load i64, ptr %4, align 8
  %.not39 = icmp eq i64 %10, 0
  br i1 %.not39, label %._crit_edge, label %.lr.ph

.lr.ph:                                           ; preds = %9, %37
  %.02738 = phi i32 [ %.1, %37 ], [ 0, %9 ]
  %.02937 = phi ptr [ %38, %37 ], [ %6, %9 ]
  %11 = call ptr @SDL_strchr_REAL(ptr noundef nonnull %.02937, i32 noundef 10) #10
  %.not34 = icmp eq ptr %11, null
  br i1 %.not34, label %13, label %12

12:                                               ; preds = %.lr.ph
  store i8 0, ptr %11, align 1
  br label %16

13:                                               ; preds = %.lr.ph
  %14 = load i64, ptr %4, align 8
  %15 = getelementptr inbounds nuw i8, ptr %6, i64 %14
  br label %16

16:                                               ; preds = %13, %12
  %.028 = phi ptr [ %11, %12 ], [ %15, %13 ]
  %17 = call ptr @SDL_strstr_REAL(ptr noundef nonnull %.02937, ptr noundef nonnull @.str.1) #10
  %.not35 = icmp eq ptr %17, null
  br i1 %.not35, label %37, label %18

18:                                               ; preds = %16
  %19 = call i64 @SDL_strlen_REAL(ptr noundef nonnull @.str.1) #10
  %20 = getelementptr inbounds nuw i8, ptr %17, i64 %19
  %21 = call ptr @SDL_strchr_REAL(ptr noundef nonnull %20, i32 noundef 44) #10
  %.not36 = icmp eq ptr %21, null
  br i1 %.not36, label %37, label %22

22:                                               ; preds = %18
  %23 = ptrtoint ptr %21 to i64
  %24 = ptrtoint ptr %20 to i64
  %25 = sub i64 %23, %24
  %26 = add i64 %25, 2
  %27 = icmp ult i64 %26, 64
  br i1 %27, label %28, label %37

28:                                               ; preds = %22
  %29 = add nsw i64 %25, 1
  %30 = call i64 @SDL_strlcpy_REAL(ptr noundef nonnull %3, ptr noundef nonnull %20, i64 noundef %29) #10
  %31 = call i32 @SDL_strncasecmp_REAL(ptr noundef nonnull %3, ptr noundef %5, i64 noundef %29) #10
  %32 = icmp eq i32 %31, 0
  br i1 %32, label %33, label %37

33:                                               ; preds = %28
  call void @SDL_LockJoysticks_REAL() #10
  %34 = call fastcc i32 @SDL_PrivateAddGamepadMapping(ptr noundef nonnull %.02937, i32 noundef 1)
  call void @SDL_UnlockJoysticks_REAL() #10
  %35 = icmp sgt i32 %34, 0
  %36 = zext i1 %35 to i32
  %spec.select = add nsw i32 %.02738, %36
  br label %37

37:                                               ; preds = %33, %18, %28, %22, %16
  %.1 = phi i32 [ %.02738, %28 ], [ %.02738, %22 ], [ %.02738, %18 ], [ %.02738, %16 ], [ %spec.select, %33 ]
  %38 = getelementptr inbounds nuw i8, ptr %.028, i64 1
  %39 = load i64, ptr %4, align 8
  %40 = getelementptr inbounds nuw i8, ptr %6, i64 %39
  %41 = icmp ult ptr %38, %40
  br i1 %41, label %.lr.ph, label %._crit_edge, !llvm.loop !13

._crit_edge:                                      ; preds = %37, %9
  %.027.lcssa = phi i32 [ 0, %9 ], [ %.1, %37 ]
  call fastcc void @PopMappingChangeTracking()
  call void @SDL_UnlockJoysticks_REAL() #10
  call void @SDL_free_REAL(ptr noundef nonnull %6) #10
  br label %42

42:                                               ; preds = %._crit_edge, %7
  %.0 = phi i32 [ %.027.lcssa, %._crit_edge ], [ -1, %7 ]
  call void @llvm.lifetime.end.p0(i64 8, ptr nonnull %4) #10
  call void @llvm.lifetime.end.p0(i64 64, ptr nonnull %3) #10
  ret i32 %.0
}